; Function Attrs: mustprogress uwtable
define internal void @_ZN10open_spiel12_GLOBAL__N_19PolicyBot9GetPolicyERKNS_5StateE(ptr dead_on_unwind noalias writable sret(%"class.std::vector.101") align 8 %0, ptr nocapture noundef nonnull readonly align 8 dereferenceable(5024) %1, ptr noundef nonnull align 8 dereferenceable(60) %2) unnamed_addr #3 align 2 {
  %4 = getelementptr inbounds nuw i8, ptr %1, i64 5008
  %5 = load ptr, ptr %4, align 8
  %6 = load ptr, ptr %5, align 8
  %7 = getelementptr inbounds i8, ptr %6, i64 48
  %8 = load ptr, ptr %7, align 8
  tail call void %8(ptr dead_on_unwind writable sret(%"class.std::vector.101") align 8 %0, ptr noundef nonnull align 8 dereferenceable(8) %5, ptr noundef nonnull align 8 dereferenceable(60) %2)
  ret void
}